target datalayout = "e-m:e-p270:32:32-p271:32:32-p272:64:64-i64:64-i128:128-f80:128-n8:16:32:64-S128"
target triple = "x86_64-unknown-linux-gnu"

%"class.grpc_core::Duration" = type { i64 }
%"struct.grpc_core::MaxAgeFilter::Config" = type { %"class.grpc_core::Duration", %"class.grpc_core::Duration", %"class.grpc_core::Duration" }

; Function Attrs: mustprogress nounwind uwtable
define linkonce_odr void @_ZN9grpc_core8DurationC2El(ptr noundef nonnull align 8 dereferenceable(8) %this, i64 noundef %millis) unnamed_addr #5 comdat align 2 {
entry:
  %this.addr = alloca ptr, align 8
  %millis.addr = alloca i64, align 8
  store ptr %this, ptr %this.addr, align 8
  store i64 %millis, ptr %millis.addr, align 8
  %this1 = load ptr, ptr %this.addr, align 8
  %millis_ = getelementptr inbounds %"class.grpc_core::Duration", ptr %this1, i32 0, i32 0
  %0 = load i64, ptr %millis.addr, align 8
  store i64 %0, ptr %millis_, align 8
  ret void
}

; Function Attrs: mustprogress nounwind uwtable
define linkonce_odr noundef i64 @_ZNSt14numeric_limitsIlE3maxEv() #5 comdat align 2 {
entry:
  ret i64 9223372036854775807
}

; Function Attrs: mustprogress nounwind uwtable
define linkonce_odr noundef zeroext i1 @_ZNK9grpc_core8DurationneES0_(ptr noundef nonnull align 8 dereferenceable(8) %this, i64 %other.coerce) #5 comdat align 2 {
entry:
  %other = alloca %"class.grpc_core::Duration", align 8
  %this.addr = alloca ptr, align 8
  %coerce.dive = getelementptr inbounds %"class.grpc_core::Duration", ptr %other, i32 0, i32 0
  store i64 %other.coerce, ptr %coerce.dive, align 8
  store ptr %this, ptr %this.addr, align 8
  %this1 = load ptr, ptr %this.addr, align 8
  %millis_ = getelementptr inbounds %"class.grpc_core::Duration", ptr %this1, i32 0, i32 0
  %0 = load i64, ptr %millis_, align 8
  %millis_2 = getelementptr inbounds %"class.grpc_core::Duration", ptr %other, i32 0, i32 0
  %1 = load i64, ptr %millis_2, align 8
  %cmp = icmp ne i64 %0, %1
  ret i1 %cmp
}

; Function Attrs: mustprogress uwtable
define linkonce_odr i64 @_ZN9grpc_core8Duration8InfinityEv() #4 comdat align 2 {
entry:
  %retval = alloca %"class.grpc_core::Duration", align 8
  %call = call noundef i64 @_ZNSt14numeric_limitsIlE3maxEv() #3
  call void @_ZN9grpc_core8DurationC2El(ptr noundef nonnull align 8 dereferenceable(8) %retval, i64 noundef %call)
  %coerce.dive = getelementptr inbounds %"class.grpc_core::Duration", ptr %retval, i32 0, i32 0
  %0 = load i64, ptr %coerce.dive, align 8
  ret i64 %0
}

; Function Attrs: mustprogress uwtable
define linkonce_odr noundef zeroext i1 @_ZNK9grpc_core12MaxAgeFilter6Config6enableEv(ptr noundef nonnull align 8 dereferenceable(24) %this) #4 comdat align 2 {
entry:
  %this.addr = alloca ptr, align 8
  %agg.tmp = alloca %"class.grpc_core::Duration", align 8
  %agg.tmp4 = alloca %"class.grpc_core::Duration", align 8
  store ptr %this, ptr %this.addr, align 8
  %this1 = load ptr, ptr %this.addr, align 8
  %max_connection_age = getelementptr inbounds %"struct.grpc_core::MaxAgeFilter::Config", ptr %this1, i32 0, i32 0
  %call = call i64 @_ZN9grpc_core8Duration8InfinityEv()
  %coerce.dive = getelementptr inbounds %"class.grpc_core::Duration", ptr %agg.tmp, i32 0, i32 0
  store i64 %call, ptr %coerce.dive, align 8
  %coerce.dive2 = getelementptr inbounds %"class.grpc_core::Duration", ptr %agg.tmp, i32 0, i32 0
  %0 = load i64, ptr %coerce.dive2, align 8
  %call3 = call noundef zeroext i1 @_ZNK9grpc_core8DurationneES0_(ptr noundef nonnull align 8 dereferenceable(8) %max_connection_age, i64 %0)
  br i1 %call3, label %lor.end, label %lor.rhs

lor.rhs:                                          ; preds = %entry
  %max_connection_idle = getelementptr inbounds %"struct.grpc_core::MaxAgeFilter::Config", ptr %this1, i32 0, i32 1
  %call5 = call i64 @_ZN9grpc_core8Duration8InfinityEv()
  %coerce.dive6 = getelementptr inbounds %"class.grpc_core::Duration", ptr %agg.tmp4, i32 0, i32 0
  store i64 %call5, ptr %coerce.dive6, align 8
  %coerce.dive7 = getelementptr inbounds %"class.grpc_core::Duration", ptr %agg.tmp4, i32 0, i32 0
  %1 = load i64, ptr %coerce.dive7, align 8
  %call8 = call noundef zeroext i1 @_ZNK9grpc_core8DurationneES0_(ptr noundef nonnull align 8 dereferenceable(8) %max_connection_idle, i64 %1)
  br label %lor.end

lor.end:                                          ; preds = %lor.rhs, %entry
  %2 = phi i1 [ true, %entry ], [ %call8, %lor.rhs ]
  ret i1 %2
}

; Function Attrs: mustprogress uwtable
define internal noundef zeroext i1 @"_ZZN9grpc_core26RegisterChannelIdleFiltersEPNS_17CoreConfiguration7BuilderEENK3$_1clERKNS_11ChannelArgsE"(ptr noundef nonnull align 1 dereferenceable(1) %this, ptr noundef nonnull align 8 dereferenceable(8) %channel_args) #4 align 2 {
entry:
  %this.addr = alloca ptr, align 8
  %channel_args.addr = alloca ptr, align 8
  %ref.tmp = alloca %"struct.grpc_core::MaxAgeFilter::Config", align 8
  store ptr %this, ptr %this.addr, align 8
  store ptr %channel_args, ptr %channel_args.addr, align 8
  %0 = load ptr, ptr %channel_args.addr, align 8
  call void @_ZN9grpc_core12MaxAgeFilter6Config15FromChannelArgsERKNS_11ChannelArgsE(ptr sret(%"struct.grpc_core::MaxAgeFilter::Config") align 8 %ref.tmp, ptr noundef nonnull align 8 dereferenceable(8) %0)
  %call = call noundef zeroext i1 @_ZNK9grpc_core12MaxAgeFilter6Config6enableEv(ptr noundef nonnull align 8 dereferenceable(24) %ref.tmp)
  ret i1 %call
}

; Function Attrs: mustprogress uwtable
define internal noundef zeroext i1 @"_ZSt13__invoke_implIbRKZN9grpc_core26RegisterChannelIdleFiltersEPNS0_17CoreConfiguration7BuilderEE3$_1JRKNS0_11ChannelArgsEEET_St14__invoke_otherOT0_DpOT1_"(ptr noundef nonnull align 1 dereferenceable(1) %__f, ptr noundef nonnull align 8 dereferenceable(8) %__args) #4 {
entry:
  %__f.addr = alloca ptr, align 8
  %__args.addr = alloca ptr, align 8
  store ptr %__f, ptr %__f.addr, align 8
  store ptr %__args, ptr %__args.addr, align 8
  %0 = load ptr, ptr %__f.addr, align 8
  %1 = load ptr, ptr %__args.addr, align 8
  %call = call noundef zeroext i1 @"_ZZN9grpc_core26RegisterChannelIdleFiltersEPNS_17CoreConfiguration7BuilderEENK3$_1clERKNS_11ChannelArgsE"(ptr noundef nonnull align 1 dereferenceable(1) %0, ptr noundef nonnull align 8 dereferenceable(8) %1)
  ret i1 %call
}

; Function Attrs: mustprogress uwtable
define internal noundef zeroext i1 @"_ZSt8__invokeIRKZN9grpc_core26RegisterChannelIdleFiltersEPNS0_17CoreConfiguration7BuilderEE3$_1JRKNS0_11ChannelArgsEEENSt15__invoke_resultIT_JDpT0_EE4typeEOSB_DpOSC_"(ptr noundef nonnull align 1 dereferenceable(1) %__fn, ptr noundef nonnull align 8 dereferenceable(8) %__args) #4 {
entry:
  %__fn.addr = alloca ptr, align 8
  %__args.addr = alloca ptr, align 8
  store ptr %__fn, ptr %__fn.addr, align 8
  store ptr %__args, ptr %__args.addr, align 8
  %0 = load ptr, ptr %__fn.addr, align 8
  %1 = load ptr, ptr %__args.addr, align 8
  %call = call noundef zeroext i1 @"_ZSt13__invoke_implIbRKZN9grpc_core26RegisterChannelIdleFiltersEPNS0_17CoreConfiguration7BuilderEE3$_1JRKNS0_11ChannelArgsEEET_St14__invoke_otherOT0_DpOT1_"(ptr noundef nonnull align 1 dereferenceable(1) %0, ptr noundef nonnull align 8 dereferenceable(8) %1)
  ret i1 %call
}

; Function Attrs: mustprogress uwtable
define internal noundef zeroext i1 @"_ZSt6invokeIRKZN9grpc_core26RegisterChannelIdleFiltersEPNS0_17CoreConfiguration7BuilderEE3$_1JRKNS0_11ChannelArgsEEENSt13invoke_resultIT_JDpT0_EE4typeEOSB_DpOSC_"(ptr noundef nonnull align 1 dereferenceable(1) %__fn, ptr noundef nonnull align 8 dereferenceable(8) %__args) #4 {
entry:
  %__fn.addr = alloca ptr, align 8
  %__args.addr = alloca ptr, align 8
  store ptr %__fn, ptr %__fn.addr, align 8
  store ptr %__args, ptr %__args.addr, align 8
  %0 = load ptr, ptr %__fn.addr, align 8
  %1 = load ptr, ptr %__args.addr, align 8
  %call = call noundef zeroext i1 @"_ZSt8__invokeIRKZN9grpc_core26RegisterChannelIdleFiltersEPNS0_17CoreConfiguration7BuilderEE3$_1JRKNS0_11ChannelArgsEEENSt15__invoke_resultIT_JDpT0_EE4typeEOSB_DpOSC_"(ptr noundef nonnull align 1 dereferenceable(1) %0, ptr noundef nonnull align 8 dereferenceable(8) %1)
  ret i1 %call
}

; Function Attrs: mustprogress nounwind uwtable
define internal noundef ptr @"_ZSt7launderIZN9grpc_core26RegisterChannelIdleFiltersEPNS0_17CoreConfiguration7BuilderEE3$_1EPT_S6_"(ptr noundef %__p) #5 {
entry:
  %__p.addr = alloca ptr, align 8
  store ptr %__p, ptr %__p.addr, align 8
  %0 = load ptr, ptr %__p.addr, align 8
  ret ptr %0
}

; Function Attrs: mustprogress uwtable
define internal noundef zeroext i1 @"_ZN4absl12lts_2023080222internal_any_invocable7InvokeRIbRKZN9grpc_core26RegisterChannelIdleFiltersEPNS3_17CoreConfiguration7BuilderEE3$_1JRKNS3_11ChannelArgsEETnNSt9enable_ifIXntsr3std7is_voidIT_EE5valueEiE4typeELi0EEESE_OT0_DpOT1_"(ptr noundef nonnull align 1 dereferenceable(1) %f, ptr noundef nonnull align 8 dereferenceable(8) %args) #4 {
entry:
  %f.addr = alloca ptr, align 8
  %args.addr = alloca ptr, align 8
  store ptr %f, ptr %f.addr, align 8
  store ptr %args, ptr %args.addr, align 8
  %0 = load ptr, ptr %f.addr, align 8
  %1 = load ptr, ptr %args.addr, align 8
  %call = call noundef zeroext i1 @"_ZSt6invokeIRKZN9grpc_core26RegisterChannelIdleFiltersEPNS0_17CoreConfiguration7BuilderEE3$_1JRKNS0_11ChannelArgsEEENSt13invoke_resultIT_JDpT0_EE4typeEOSB_DpOSC_"(ptr noundef nonnull align 1 dereferenceable(1) %0, ptr noundef nonnull align 8 dereferenceable(8) %1)
  ret i1 %call
}

; Function Attrs: mustprogress nounwind uwtable
define internal noundef nonnull align 1 dereferenceable(1) ptr @"_ZN4absl12lts_2023080222internal_any_invocable20ObjectInLocalStorageIZN9grpc_core26RegisterChannelIdleFiltersEPNS3_17CoreConfiguration7BuilderEE3$_1EERT_PNS1_15TypeErasedStateE"(ptr noundef %state) #5 {
entry:
  %state.addr = alloca ptr, align 8
  store ptr %state, ptr %state.addr, align 8
  %0 = load ptr, ptr %state.addr, align 8
  %call = call noundef ptr @"_ZSt7launderIZN9grpc_core26RegisterChannelIdleFiltersEPNS0_17CoreConfiguration7BuilderEE3$_1EPT_S6_"(ptr noundef %0) #3
  ret ptr %call
}

; Function Attrs: mustprogress uwtable
define internal noundef zeroext i1 @"_ZN4absl12lts_2023080222internal_any_invocable12LocalInvokerILb0EbRKZN9grpc_core26RegisterChannelIdleFiltersEPNS3_17CoreConfiguration7BuilderEE3$_1JRKNS3_11ChannelArgsEEEET0_PNS1_15TypeErasedStateEDpNS1_18ForwardedParameterIT2_E4typeE"(ptr noundef %state, ptr noundef nonnull align 8 dereferenceable(8) %args) #4 {
entry:
  %state.addr = alloca ptr, align 8
  %args.addr = alloca ptr, align 8
  %f = alloca ptr, align 8
  store ptr %state, ptr %state.addr, align 8
  store ptr %args, ptr %args.addr, align 8
  %0 = load ptr, ptr %state.addr, align 8
  %call = call noundef nonnull align 1 dereferenceable(1) ptr @"_ZN4absl12lts_2023080222internal_any_invocable20ObjectInLocalStorageIZN9grpc_core26RegisterChannelIdleFiltersEPNS3_17CoreConfiguration7BuilderEE3$_1EERT_PNS1_15TypeErasedStateE"(ptr noundef %0)
  store ptr %call, ptr %f, align 8
  %1 = load ptr, ptr %f, align 8
  %2 = load ptr, ptr %args.addr, align 8
  %call1 = call noundef zeroext i1 @"_ZN4absl12lts_2023080222internal_any_invocable7InvokeRIbRKZN9grpc_core26RegisterChannelIdleFiltersEPNS3_17CoreConfiguration7BuilderEE3$_1JRKNS3_11ChannelArgsEETnNSt9enable_ifIXntsr3std7is_voidIT_EE5valueEiE4typeELi0EEESE_OT0_DpOT1_"(ptr noundef nonnull align 1 dereferenceable(1) %1, ptr noundef nonnull align 8 dereferenceable(8) %2)
  ret i1 %call1
}