; Function Attrs: mustprogress uwtable
define internal noundef zeroext i1 @"_ZN4absl12lts_2023080222internal_any_invocable12LocalInvokerILb0EbRKZN9grpc_core26RegisterChannelIdleFiltersEPNS3_17CoreConfiguration7BuilderEE3$_1JRKNS3_11ChannelArgsEEEET0_PNS1_15TypeErasedStateEDpNS1_18ForwardedParameterIT2_E4typeE"(ptr nocapture readnone %state, ptr noundef nonnull align 8 dereferenceable(8) %args) #3 {
entry:
  %ref.tmp.i.i.i.i.i = alloca %"struct.grpc_core::MaxAgeFilter::Config", align 8
  call void @llvm.lifetime.start.p0(i64 24, ptr nonnull %ref.tmp.i.i.i.i.i)
  call void @_ZN9grpc_core12MaxAgeFilter6Config15FromChannelArgsERKNS_11ChannelArgsE(ptr nonnull sret(%"struct.grpc_core::MaxAgeFilter::Config") align 8 %ref.tmp.i.i.i.i.i, ptr noundef nonnull align 8 dereferenceable(8) %args)
  %0 = load i64, ptr %ref.tmp.i.i.i.i.i, align 8
  %cmp.i.i.i.i.i.i.i = icmp ne i64 %0, 9223372036854775807
  %max_connection_idle.i.i.i.i.i.i = getelementptr inbounds i8, ptr %ref.tmp.i.i.i.i.i, i64 8
  %1 = load i64, ptr %max_connection_idle.i.i.i.i.i.i, align 8
  %cmp.i1.i.i.i.i.i.i = icmp ne i64 %1, 9223372036854775807
  %2 = select i1 %cmp.i.i.i.i.i.i.i, i1 true, i1 %cmp.i1.i.i.i.i.i.i
  call void @llvm.lifetime.end.p0(i64 24, ptr nonnull %ref.tmp.i.i.i.i.i)
  ret i1 %2
}